ARM GAS  C:\Users\Admin\AppData\Local\Temp\cc1SHLn5.s 			page 1


   1              		.cpu cortex-m3
   2              		.arch armv7-m
   3              		.fpu softvfp
   4              		.eabi_attribute 20, 1
   5              		.eabi_attribute 21, 1
   6              		.eabi_attribute 23, 3
   7              		.eabi_attribute 24, 1
   8              		.eabi_attribute 25, 1
   9              		.eabi_attribute 26, 1
  10              		.eabi_attribute 30, 1
  11              		.eabi_attribute 34, 1
  12              		.eabi_attribute 18, 4
  13              		.file	"deca_sleep.c"
  14              		.text
  15              	.Ltext0:
  16              		.cfi_sections	.debug_frame
  17              		.section	.text.sleep_ms,"ax",%progbits
  18              		.align	1
  19              		.global	sleep_ms
  20              		.syntax unified
  21              		.thumb
  22              		.thumb_func
  24              	sleep_ms:
  25              	.LVL0:
  26              	.LFB66:
  27              		.file 1 "Core/platform/deca_sleep.c"
   1:Core/platform/deca_sleep.c **** /*! ----------------------------------------------------------------------------
   2:Core/platform/deca_sleep.c ****  * @file    deca_sleep.c
   3:Core/platform/deca_sleep.c ****  * @brief   platform dependent sleep implementation
   4:Core/platform/deca_sleep.c ****  *
   5:Core/platform/deca_sleep.c ****  * @attention
   6:Core/platform/deca_sleep.c ****  *
   7:Core/platform/deca_sleep.c ****  * Copyright 2015 (c) DecaWave Ltd, Dublin, Ireland.
   8:Core/platform/deca_sleep.c ****  *
   9:Core/platform/deca_sleep.c ****  * All rights reserved.
  10:Core/platform/deca_sleep.c ****  *
  11:Core/platform/deca_sleep.c ****  * @author DecaWave
  12:Core/platform/deca_sleep.c ****  */
  13:Core/platform/deca_sleep.c **** 
  14:Core/platform/deca_sleep.c **** #include "deca_device_api.h"
  15:Core/platform/deca_sleep.c **** #include "sleep.h"
  16:Core/platform/deca_sleep.c **** #include "port.h"
  17:Core/platform/deca_sleep.c **** 
  18:Core/platform/deca_sleep.c **** /* Wrapper function to be used by decadriver. Declared in deca_device_api.h */
  19:Core/platform/deca_sleep.c **** void deca_sleep(unsigned int time_ms)
  20:Core/platform/deca_sleep.c **** {
  21:Core/platform/deca_sleep.c ****     sleep_ms(time_ms);
  22:Core/platform/deca_sleep.c **** }
  23:Core/platform/deca_sleep.c **** 
  24:Core/platform/deca_sleep.c **** void sleep_ms(unsigned int time_ms)
  25:Core/platform/deca_sleep.c **** {
  28              		.loc 1 25 1 view -0
  29              		.cfi_startproc
  30              		@ args = 0, pretend = 0, frame = 0
  31              		@ frame_needed = 0, uses_anonymous_args = 0
  32              		.loc 1 25 1 is_stmt 0 view .LVU1
  33 0000 10B5     		push	{r4, lr}
ARM GAS  C:\Users\Admin\AppData\Local\Temp\cc1SHLn5.s 			page 2


  34              	.LCFI0:
  35              		.cfi_def_cfa_offset 8
  36              		.cfi_offset 4, -8
  37              		.cfi_offset 14, -4
  38 0002 0446     		mov	r4, r0
  26:Core/platform/deca_sleep.c ****     /* This assumes that the tick has a period of exactly one millisecond. See CLOCKS_PER_SEC defin
  27:Core/platform/deca_sleep.c ****     unsigned long end = portGetTickCount() + time_ms;
  39              		.loc 1 27 5 is_stmt 1 view .LVU2
  40              		.loc 1 27 25 is_stmt 0 view .LVU3
  41 0004 FFF7FEFF 		bl	portGetTickCnt
  42              	.LVL1:
  43              		.loc 1 27 19 view .LVU4
  44 0008 0444     		add	r4, r4, r0
  45              	.LVL2:
  28:Core/platform/deca_sleep.c ****     while ((signed long)(portGetTickCount() - end) <= 0)
  46              		.loc 1 28 5 is_stmt 1 view .LVU5
  47              	.L2:
  29:Core/platform/deca_sleep.c ****         ;
  48              		.loc 1 29 9 discriminator 1 view .LVU6
  28:Core/platform/deca_sleep.c ****     while ((signed long)(portGetTickCount() - end) <= 0)
  49              		.loc 1 28 11 discriminator 1 view .LVU7
  28:Core/platform/deca_sleep.c ****     while ((signed long)(portGetTickCount() - end) <= 0)
  50              		.loc 1 28 26 is_stmt 0 discriminator 1 view .LVU8
  51 000a FFF7FEFF 		bl	portGetTickCnt
  52              	.LVL3:
  28:Core/platform/deca_sleep.c ****     while ((signed long)(portGetTickCount() - end) <= 0)
  53              		.loc 1 28 45 discriminator 1 view .LVU9
  54 000e 001B     		subs	r0, r0, r4
  28:Core/platform/deca_sleep.c ****     while ((signed long)(portGetTickCount() - end) <= 0)
  55              		.loc 1 28 11 discriminator 1 view .LVU10
  56 0010 0028     		cmp	r0, #0
  57 0012 FADD     		ble	.L2
  30:Core/platform/deca_sleep.c **** }
  58              		.loc 1 30 1 view .LVU11
  59 0014 10BD     		pop	{r4, pc}
  60              		.loc 1 30 1 view .LVU12
  61              		.cfi_endproc
  62              	.LFE66:
  64              		.section	.text.deca_sleep,"ax",%progbits
  65              		.align	1
  66              		.global	deca_sleep
  67              		.syntax unified
  68              		.thumb
  69              		.thumb_func
  71              	deca_sleep:
  72              	.LVL4:
  73              	.LFB65:
  20:Core/platform/deca_sleep.c ****     sleep_ms(time_ms);
  74              		.loc 1 20 1 is_stmt 1 view -0
  75              		.cfi_startproc
  76              		@ args = 0, pretend = 0, frame = 0
  77              		@ frame_needed = 0, uses_anonymous_args = 0
  20:Core/platform/deca_sleep.c ****     sleep_ms(time_ms);
  78              		.loc 1 20 1 is_stmt 0 view .LVU14
  79 0000 08B5     		push	{r3, lr}
  80              	.LCFI1:
  81              		.cfi_def_cfa_offset 8
ARM GAS  C:\Users\Admin\AppData\Local\Temp\cc1SHLn5.s 			page 3


  82              		.cfi_offset 3, -8
  83              		.cfi_offset 14, -4
  21:Core/platform/deca_sleep.c **** }
  84              		.loc 1 21 5 is_stmt 1 view .LVU15
  85 0002 FFF7FEFF 		bl	sleep_ms
  86              	.LVL5:
  22:Core/platform/deca_sleep.c **** 
  87              		.loc 1 22 1 is_stmt 0 view .LVU16
  88 0006 08BD     		pop	{r3, pc}
  89              		.cfi_endproc
  90              	.LFE65:
  92              		.text
  93              	.Letext0:
  94              		.file 2 "Core/platform/port.h"
ARM GAS  C:\Users\Admin\AppData\Local\Temp\cc1SHLn5.s 			page 4

